#include <math.h>
#include <stdio.h>
#include <stdlib.h>
#include <string.h>

void main()
{
    char s[51],w[51];
    int l,m,i,j;
    scanf("%s%s",s,w);
    l=strlen(s);
    m=strlen(w);
    for(i=0;i<=m-l;i++)
    	{ 	
    		if(w[i]==s[0])
    			{
    				for(j=0;j<l;j++)
    					{
    					if(w[i+j]!=s[j])
    					break;	
    					}	
    				if(j==l)
    				{
    					printf("%d",i);
    					break;
    				}
    			}
    		
    	}
    
}