; ModuleID = '45/666.c'
source_filename = "45/666.c"
target datalayout = "e-m:e-p270:32:32-p271:32:32-p272:64:64-i64:64-f80:128-n8:16:32:64-S128"
target triple = "x86_64-pc-linux-gnu"

@.str = private unnamed_addr constant [5 x i8] c"%s%s\00", align 1
@.str.1 = private unnamed_addr constant [3 x i8] c"%d\00", align 1

; Function Attrs: noinline nounwind uwtable
define dso_local void @main() #0 {
  %1 = alloca [51 x i8], align 16
  %2 = alloca [51 x i8], align 16
  %3 = alloca i32, align 4
  %4 = alloca i32, align 4
  %5 = alloca i32, align 4
  %6 = alloca i32, align 4
  %7 = getelementptr inbounds [51 x i8], [51 x i8]* %1, i64 0, i64 0
  %8 = getelementptr inbounds [51 x i8], [51 x i8]* %2, i64 0, i64 0
  %9 = call i32 (i8*, ...) @__isoc99_scanf(i8* getelementptr inbounds ([5 x i8], [5 x i8]* @.str, i64 0, i64 0), i8* %7, i8* %8)
  %10 = getelementptr inbounds [51 x i8], [51 x i8]* %1, i64 0, i64 0
  %11 = call i64 @strlen(i8* %10) #3
  %12 = trunc i64 %11 to i32
  store i32 %12, i32* %3, align 4
  %13 = getelementptr inbounds [51 x i8], [51 x i8]* %2, i64 0, i64 0
  %14 = call i64 @strlen(i8* %13) #3
  %15 = trunc i64 %14 to i32
  store i32 %15, i32* %4, align 4
  store i32 0, i32* %5, align 4
  br label %16

16:                                               ; preds = %65, %0
  %17 = load i32, i32* %5, align 4
  %18 = load i32, i32* %4, align 4
  %19 = load i32, i32* %3, align 4
  %20 = sub nsw i32 %18, %19
  %21 = icmp sle i32 %17, %20
  br i1 %21, label %22, label %68

22:                                               ; preds = %16
  %23 = load i32, i32* %5, align 4
  %24 = sext i32 %23 to i64
  %25 = getelementptr inbounds [51 x i8], [51 x i8]* %2, i64 0, i64 %24
  %26 = load i8, i8* %25, align 1
  %27 = sext i8 %26 to i32
  %28 = getelementptr inbounds [51 x i8], [51 x i8]* %1, i64 0, i64 0
  %29 = load i8, i8* %28, align 16
  %30 = sext i8 %29 to i32
  %31 = icmp eq i32 %27, %30
  br i1 %31, label %32, label %64

32:                                               ; preds = %22
  store i32 0, i32* %6, align 4
  br label %33

33:                                               ; preds = %53, %32
  %34 = load i32, i32* %6, align 4
  %35 = load i32, i32* %3, align 4
  %36 = icmp slt i32 %34, %35
  br i1 %36, label %37, label %56

37:                                               ; preds = %33
  %38 = load i32, i32* %5, align 4
  %39 = load i32, i32* %6, align 4
  %40 = add nsw i32 %38, %39
  %41 = sext i32 %40 to i64
  %42 = getelementptr inbounds [51 x i8], [51 x i8]* %2, i64 0, i64 %41
  %43 = load i8, i8* %42, align 1
  %44 = sext i8 %43 to i32
  %45 = load i32, i32* %6, align 4
  %46 = sext i32 %45 to i64
  %47 = getelementptr inbounds [51 x i8], [51 x i8]* %1, i64 0, i64 %46
  %48 = load i8, i8* %47, align 1
  %49 = sext i8 %48 to i32
  %50 = icmp ne i32 %44, %49
  br i1 %50, label %51, label %52

51:                                               ; preds = %37
  br label %56

52:                                               ; preds = %37
  br label %53

53:                                               ; preds = %52
  %54 = load i32, i32* %6, align 4
  %55 = add nsw i32 %54, 1
  store i32 %55, i32* %6, align 4
  br label %33

56:                                               ; preds = %51, %33
  %57 = load i32, i32* %6, align 4
  %58 = load i32, i32* %3, align 4
  %59 = icmp eq i32 %57, %58
  br i1 %59, label %60, label %63

60:                                               ; preds = %56
  %61 = load i32, i32* %5, align 4
  %62 = call i32 (i8*, ...) @printf(i8* getelementptr inbounds ([3 x i8], [3 x i8]* @.str.1, i64 0, i64 0), i32 %61)
  br label %68

63:                                               ; preds = %56
  br label %64

64:                                               ; preds = %63, %22
  br label %65

65:                                               ; preds = %64
  %66 = load i32, i32* %5, align 4
  %67 = add nsw i32 %66, 1
  store i32 %67, i32* %5, align 4
  br label %16

68:                                               ; preds = %60, %16
  ret void
}

declare dso_local i32 @__isoc99_scanf(i8*, ...) #1

; Function Attrs: nounwind readonly
declare dso_local i64 @strlen(i8*) #2

declare dso_local i32 @printf(i8*, ...) #1


!llvm.module.flags = !{!0}
!llvm.ident = !{!1}

!0 = !{i32 1, !"wchar_size", i32 4}
!1 = !{!"clang version 10.0.0-4ubuntu1 "}
